target datalayout = "e-m:e-p270:32:32-p271:32:32-p272:64:64-i64:64-i128:128-f80:128-n8:16:32:64-S128"
target triple = "x86_64-pc-linux-gnu"

%struct.gz_state = type { %struct.gzFile_s, i32, i32, ptr, i32, i32, ptr, ptr, i32, i32, i64, i32, i32, i32, i32, i32, i64, i32, i32, ptr, %struct.z_stream_s }
%struct.gzFile_s = type { i32, ptr, i64 }
%struct.z_stream_s = type { ptr, i32, i64, ptr, i32, i64, ptr, ptr, ptr, ptr, ptr, i32, i64, i64 }

@.str = private unnamed_addr constant [37 x i8] c"requested length does not fit in int\00", align 1

; Function Attrs: nounwind uwtable
define dso_local i32 @cm_zlib_gzwrite(ptr noundef %0, ptr noundef %1, i32 noundef %2) #0 {
  %4 = alloca i32, align 4
  %5 = alloca ptr, align 8
  %6 = alloca ptr, align 8
  %7 = alloca i32, align 4
  %8 = alloca ptr, align 8
  %9 = alloca i32, align 4
  store ptr %0, ptr %5, align 8, !tbaa !4
  store ptr %1, ptr %6, align 8, !tbaa !9
  store i32 %2, ptr %7, align 4, !tbaa !10
  call void @llvm.lifetime.start.p0(i64 8, ptr %8) #10
  %10 = load ptr, ptr %5, align 8, !tbaa !4
  %11 = icmp eq ptr %10, null
  br i1 %11, label %12, label %13

12:                                               ; preds = %3
  store i32 0, ptr %4, align 4
  store i32 1, ptr %9, align 4
  br label %37

13:                                               ; preds = %3
  %14 = load ptr, ptr %5, align 8, !tbaa !4
  store ptr %14, ptr %8, align 8, !tbaa !9
  %15 = load ptr, ptr %8, align 8, !tbaa !9
  %16 = getelementptr inbounds nuw %struct.gz_state, ptr %15, i32 0, i32 1
  %17 = load i32, ptr %16, align 8, !tbaa !12
  %18 = icmp ne i32 %17, 31153
  br i1 %18, label %24, label %19

19:                                               ; preds = %13
  %20 = load ptr, ptr %8, align 8, !tbaa !9
  %21 = getelementptr inbounds nuw %struct.gz_state, ptr %20, i32 0, i32 18
  %22 = load i32, ptr %21, align 4, !tbaa !19
  %23 = icmp ne i32 %22, 0
  br i1 %23, label %24, label %25

24:                                               ; preds = %19, %13
  store i32 0, ptr %4, align 4
  store i32 1, ptr %9, align 4
  br label %37

25:                                               ; preds = %19
  %26 = load i32, ptr %7, align 4, !tbaa !10
  %27 = icmp slt i32 %26, 0
  br i1 %27, label %28, label %30

28:                                               ; preds = %25
  %29 = load ptr, ptr %8, align 8, !tbaa !9
  call void @cm_zlib_gz_error(ptr noundef %29, i32 noundef -3, ptr noundef @.str)
  store i32 0, ptr %4, align 4
  store i32 1, ptr %9, align 4
  br label %37

30:                                               ; preds = %25
  %31 = load ptr, ptr %8, align 8, !tbaa !9
  %32 = load ptr, ptr %6, align 8, !tbaa !9
  %33 = load i32, ptr %7, align 4, !tbaa !10
  %34 = zext i32 %33 to i64
  %35 = call i64 @gz_write(ptr noundef %31, ptr noundef %32, i64 noundef %34)
  %36 = trunc i64 %35 to i32
  store i32 %36, ptr %4, align 4
  store i32 1, ptr %9, align 4
  br label %37

37:                                               ; preds = %30, %28, %24, %12
  call void @llvm.lifetime.end.p0(i64 8, ptr %8) #10
  %38 = load i32, ptr %4, align 4
  ret i32 %38
}