; Function Attrs: nounwind uwtable
define dso_local noundef i32 @cm_zlib_gzwrite(ptr noundef %0, ptr noundef %1, i32 noundef %2) local_unnamed_addr #0 {
  %4 = icmp eq ptr %0, null
  br i1 %4, label %18, label %5

5:                                                ; preds = %3
  %6 = getelementptr inbounds nuw i8, ptr %0, i64 24
  %7 = load i32, ptr %6, align 8, !tbaa !4
  %.not = icmp eq i32 %7, 31153
  br i1 %.not, label %8, label %18

8:                                                ; preds = %5
  %9 = getelementptr inbounds nuw i8, ptr %0, i64 116
  %10 = load i32, ptr %9, align 4, !tbaa !15
  %.not11 = icmp eq i32 %10, 0
  br i1 %.not11, label %11, label %18

11:                                               ; preds = %8
  %12 = icmp slt i32 %2, 0
  br i1 %12, label %13, label %14

13:                                               ; preds = %11
  tail call void @cm_zlib_gz_error(ptr noundef nonnull %0, i32 noundef -3, ptr noundef nonnull @.str) #14
  br label %18

14:                                               ; preds = %11
  %15 = zext nneg i32 %2 to i64
  %16 = tail call fastcc i64 @gz_write(ptr noundef %0, ptr noundef %1, i64 noundef %15)
  %17 = trunc i64 %16 to i32
  br label %18

18:                                               ; preds = %5, %8, %3, %14, %13
  %.0 = phi i32 [ 0, %13 ], [ %17, %14 ], [ 0, %3 ], [ 0, %8 ], [ 0, %5 ]
  ret i32 %.0
}